target datalayout = "e-m:e-p270:32:32-p271:32:32-p272:64:64-i64:64-i128:128-f80:128-n8:16:32:64-S128"
target triple = "x86_64-pc-linux-gnu"

%"struct.duckdb_hll::sdshdr8" = type { i8, i8, i8, [1 x i8] }
%"struct.duckdb_hll::sdshdr16" = type { i16, i16, i8, [1 x i8] }
%"struct.duckdb_hll::sdshdr32" = type <{ i32, i32, i8, [1 x i8] }>
%"struct.duckdb_hll::sdshdr64" = type <{ i64, i64, i8, [1 x i8] }>

; Function Attrs: inlinehint mustprogress nounwind uwtable
define internal void @_ZN10duckdb_hllL9sdssetlenEPcm(ptr noundef %0, i64 noundef %1) #2 {
  %3 = alloca ptr, align 8
  %4 = alloca i64, align 8
  %5 = alloca i8, align 1
  %6 = alloca ptr, align 8
  store ptr %0, ptr %3, align 8, !tbaa !12
  store i64 %1, ptr %4, align 8, !tbaa !7
  call void @llvm.lifetime.start.p0(i64 1, ptr %5) #11
  %7 = load ptr, ptr %3, align 8, !tbaa !12
  %8 = getelementptr inbounds i8, ptr %7, i64 -1
  %9 = load i8, ptr %8, align 1, !tbaa !9
  store i8 %9, ptr %5, align 1, !tbaa !9
  %10 = load i8, ptr %5, align 1, !tbaa !9
  %11 = zext i8 %10 to i32
  %12 = and i32 %11, 7
  switch i32 %12, label %44 [
    i32 0, label %13
    i32 1, label %21
    i32 2, label %27
    i32 3, label %33
    i32 4, label %39
  ]

13:                                               ; preds = %2
  call void @llvm.lifetime.start.p0(i64 8, ptr %6) #11
  %14 = load ptr, ptr %3, align 8, !tbaa !12
  %15 = getelementptr inbounds i8, ptr %14, i64 -1
  store ptr %15, ptr %6, align 8, !tbaa !12
  %16 = load i64, ptr %4, align 8, !tbaa !7
  %17 = shl i64 %16, 3
  %18 = or i64 0, %17
  %19 = trunc i64 %18 to i8
  %20 = load ptr, ptr %6, align 8, !tbaa !12
  store i8 %19, ptr %20, align 1, !tbaa !9
  call void @llvm.lifetime.end.p0(i64 8, ptr %6) #11
  br label %44

21:                                               ; preds = %2
  %22 = load i64, ptr %4, align 8, !tbaa !7
  %23 = trunc i64 %22 to i8
  %24 = load ptr, ptr %3, align 8, !tbaa !12
  %25 = getelementptr inbounds i8, ptr %24, i64 -4
  %26 = getelementptr inbounds nuw %"struct.duckdb_hll::sdshdr8", ptr %25, i32 0, i32 0
  store i8 %23, ptr %26, align 1, !tbaa !16
  br label %44

27:                                               ; preds = %2
  %28 = load i64, ptr %4, align 8, !tbaa !7
  %29 = trunc i64 %28 to i16
  %30 = load ptr, ptr %3, align 8, !tbaa !12
  %31 = getelementptr inbounds i8, ptr %30, i64 -6
  %32 = getelementptr inbounds nuw %"struct.duckdb_hll::sdshdr16", ptr %31, i32 0, i32 0
  store i16 %29, ptr %32, align 1, !tbaa !21
  br label %44

33:                                               ; preds = %2
  %34 = load i64, ptr %4, align 8, !tbaa !7
  %35 = trunc i64 %34 to i32
  %36 = load ptr, ptr %3, align 8, !tbaa !12
  %37 = getelementptr inbounds i8, ptr %36, i64 -10
  %38 = getelementptr inbounds nuw %"struct.duckdb_hll::sdshdr32", ptr %37, i32 0, i32 0
  store i32 %35, ptr %38, align 1, !tbaa !27
  br label %44

39:                                               ; preds = %2
  %40 = load i64, ptr %4, align 8, !tbaa !7
  %41 = load ptr, ptr %3, align 8, !tbaa !12
  %42 = getelementptr inbounds i8, ptr %41, i64 -18
  %43 = getelementptr inbounds nuw %"struct.duckdb_hll::sdshdr64", ptr %42, i32 0, i32 0
  store i64 %40, ptr %43, align 1, !tbaa !32
  br label %44

44:                                               ; preds = %2, %39, %33, %27, %21, %13
  call void @llvm.lifetime.end.p0(i64 1, ptr %5) #11
  ret void
}

; Function Attrs: inlinehint mustprogress nounwind uwtable
define internal noundef i64 @_ZN10duckdb_hllL6sdslenEPc(ptr noundef %0) #2 {
  %2 = alloca i64, align 8
  %3 = alloca ptr, align 8
  %4 = alloca i8, align 1
  %5 = alloca i32, align 4
  store ptr %0, ptr %3, align 8, !tbaa !12
  call void @llvm.lifetime.start.p0(i64 1, ptr %4) #11
  %6 = load ptr, ptr %3, align 8, !tbaa !12
  %7 = getelementptr inbounds i8, ptr %6, i64 -1
  %8 = load i8, ptr %7, align 1, !tbaa !9
  store i8 %8, ptr %4, align 1, !tbaa !9
  %9 = load i8, ptr %4, align 1, !tbaa !9
  %10 = zext i8 %9 to i32
  %11 = and i32 %10, 7
  switch i32 %11, label %40 [
    i32 0, label %12
    i32 1, label %17
    i32 2, label %23
    i32 3, label %29
    i32 4, label %35
  ]

12:                                               ; preds = %1
  %13 = load i8, ptr %4, align 1, !tbaa !9
  %14 = zext i8 %13 to i32
  %15 = ashr i32 %14, 3
  %16 = sext i32 %15 to i64
  store i64 %16, ptr %2, align 8
  store i32 1, ptr %5, align 4
  br label %41

17:                                               ; preds = %1
  %18 = load ptr, ptr %3, align 8, !tbaa !12
  %19 = getelementptr inbounds i8, ptr %18, i64 -4
  %20 = getelementptr inbounds nuw %"struct.duckdb_hll::sdshdr8", ptr %19, i32 0, i32 0
  %21 = load i8, ptr %20, align 1, !tbaa !16
  %22 = zext i8 %21 to i64
  store i64 %22, ptr %2, align 8
  store i32 1, ptr %5, align 4
  br label %41

23:                                               ; preds = %1
  %24 = load ptr, ptr %3, align 8, !tbaa !12
  %25 = getelementptr inbounds i8, ptr %24, i64 -6
  %26 = getelementptr inbounds nuw %"struct.duckdb_hll::sdshdr16", ptr %25, i32 0, i32 0
  %27 = load i16, ptr %26, align 1, !tbaa !21
  %28 = zext i16 %27 to i64
  store i64 %28, ptr %2, align 8
  store i32 1, ptr %5, align 4
  br label %41

29:                                               ; preds = %1
  %30 = load ptr, ptr %3, align 8, !tbaa !12
  %31 = getelementptr inbounds i8, ptr %30, i64 -10
  %32 = getelementptr inbounds nuw %"struct.duckdb_hll::sdshdr32", ptr %31, i32 0, i32 0
  %33 = load i32, ptr %32, align 1, !tbaa !27
  %34 = zext i32 %33 to i64
  store i64 %34, ptr %2, align 8
  store i32 1, ptr %5, align 4
  br label %41

35:                                               ; preds = %1
  %36 = load ptr, ptr %3, align 8, !tbaa !12
  %37 = getelementptr inbounds i8, ptr %36, i64 -18
  %38 = getelementptr inbounds nuw %"struct.duckdb_hll::sdshdr64", ptr %37, i32 0, i32 0
  %39 = load i64, ptr %38, align 1, !tbaa !32
  store i64 %39, ptr %2, align 8
  store i32 1, ptr %5, align 4
  br label %41

40:                                               ; preds = %1
  store i64 0, ptr %2, align 8
  store i32 1, ptr %5, align 4
  br label %41

41:                                               ; preds = %40, %35, %29, %23, %17, %12
  call void @llvm.lifetime.end.p0(i64 1, ptr %4) #11
  %42 = load i64, ptr %2, align 8
  ret i64 %42
}

; Function Attrs: mustprogress uwtable
define noundef ptr @_ZN10duckdb_hll9sdscatlenEPcPKvm(ptr noundef %0, ptr noundef %1, i64 noundef %2) #0 {
  %4 = alloca ptr, align 8
  %5 = alloca ptr, align 8
  %6 = alloca ptr, align 8
  %7 = alloca i64, align 8
  %8 = alloca i64, align 8
  %9 = alloca i32, align 4
  store ptr %0, ptr %5, align 8, !tbaa !12
  store ptr %1, ptr %6, align 8, !tbaa !3
  store i64 %2, ptr %7, align 8, !tbaa !7
  call void @llvm.lifetime.start.p0(i64 8, ptr %8) #11
  %10 = load ptr, ptr %5, align 8, !tbaa !12
  %11 = call noundef i64 @_ZN10duckdb_hllL6sdslenEPc(ptr noundef %10)
  store i64 %11, ptr %8, align 8, !tbaa !7
  %12 = load ptr, ptr %5, align 8, !tbaa !12
  %13 = load i64, ptr %7, align 8, !tbaa !7
  %14 = call noundef ptr @_ZN10duckdb_hll14sdsMakeRoomForEPcm(ptr noundef %12, i64 noundef %13)
  store ptr %14, ptr %5, align 8, !tbaa !12
  %15 = load ptr, ptr %5, align 8, !tbaa !12
  %16 = icmp eq ptr %15, null
  br i1 %16, label %17, label %18

17:                                               ; preds = %3
  store ptr null, ptr %4, align 8
  store i32 1, ptr %9, align 4
  br label %34

18:                                               ; preds = %3
  %19 = load ptr, ptr %5, align 8, !tbaa !12
  %20 = load i64, ptr %8, align 8, !tbaa !7
  %21 = getelementptr inbounds nuw i8, ptr %19, i64 %20
  %22 = load ptr, ptr %6, align 8, !tbaa !3
  %23 = load i64, ptr %7, align 8, !tbaa !7
  call void @llvm.memcpy.p0.p0.i64(ptr align 1 %21, ptr align 1 %22, i64 %23, i1 false)
  %24 = load ptr, ptr %5, align 8, !tbaa !12
  %25 = load i64, ptr %8, align 8, !tbaa !7
  %26 = load i64, ptr %7, align 8, !tbaa !7
  %27 = add i64 %25, %26
  call void @_ZN10duckdb_hllL9sdssetlenEPcm(ptr noundef %24, i64 noundef %27)
  %28 = load ptr, ptr %5, align 8, !tbaa !12
  %29 = load i64, ptr %8, align 8, !tbaa !7
  %30 = load i64, ptr %7, align 8, !tbaa !7
  %31 = add i64 %29, %30
  %32 = getelementptr inbounds nuw i8, ptr %28, i64 %31
  store i8 0, ptr %32, align 1, !tbaa !9
  %33 = load ptr, ptr %5, align 8, !tbaa !12
  store ptr %33, ptr %4, align 8
  store i32 1, ptr %9, align 4
  br label %34

34:                                               ; preds = %18, %17
  call void @llvm.lifetime.end.p0(i64 8, ptr %8) #11
  %35 = load ptr, ptr %4, align 8
  ret ptr %35
}