; Function Attrs: mustprogress nounwind willreturn uwtable
define noundef ptr @_ZN10duckdb_hll9sdscatlenEPcPKvm(ptr noundef captures(address, ret: address, provenance) %0, ptr noundef readonly captures(none) %1, i64 noundef %2) local_unnamed_addr #11 {
  %4 = getelementptr inbounds i8, ptr %0, i64 -1
  %5 = load i8, ptr %4, align 1, !tbaa !20
  %6 = zext i8 %5 to i32
  %7 = and i32 %6, 7
  switch i32 %7, label %_ZN10duckdb_hllL6sdslenEPc.exit [
    i32 0, label %8
    i32 1, label %11
    i32 2, label %15
    i32 3, label %19
    i32 4, label %23
  ]

8:                                                ; preds = %3
  %9 = lshr i32 %6, 3
  %10 = zext nneg i32 %9 to i64
  br label %_ZN10duckdb_hllL6sdslenEPc.exit

11:                                               ; preds = %3
  %12 = getelementptr inbounds i8, ptr %0, i64 -4
  %13 = load i8, ptr %12, align 1, !tbaa !3
  %14 = zext i8 %13 to i64
  br label %_ZN10duckdb_hllL6sdslenEPc.exit

15:                                               ; preds = %3
  %16 = getelementptr inbounds i8, ptr %0, i64 -6
  %17 = load i16, ptr %16, align 1, !tbaa !8
  %18 = zext i16 %17 to i64
  br label %_ZN10duckdb_hllL6sdslenEPc.exit

19:                                               ; preds = %3
  %20 = getelementptr inbounds i8, ptr %0, i64 -10
  %21 = load i32, ptr %20, align 1, !tbaa !12
  %22 = zext i32 %21 to i64
  br label %_ZN10duckdb_hllL6sdslenEPc.exit

23:                                               ; preds = %3
  %24 = getelementptr inbounds i8, ptr %0, i64 -18
  %25 = load i64, ptr %24, align 1, !tbaa !16
  br label %_ZN10duckdb_hllL6sdslenEPc.exit

_ZN10duckdb_hllL6sdslenEPc.exit:                  ; preds = %3, %8, %11, %15, %19, %23
  %.0.i = phi i64 [ %25, %23 ], [ %22, %19 ], [ %18, %15 ], [ %14, %11 ], [ %10, %8 ], [ 0, %3 ]
  %26 = tail call noundef ptr @_ZN10duckdb_hll14sdsMakeRoomForEPcm(ptr noundef nonnull %0, i64 noundef %2)
  %27 = icmp eq ptr %26, null
  br i1 %27, label %48, label %28

28:                                               ; preds = %_ZN10duckdb_hllL6sdslenEPc.exit
  %29 = getelementptr inbounds nuw i8, ptr %26, i64 %.0.i
  tail call void @llvm.memcpy.p0.p0.i64(ptr nonnull align 1 %29, ptr align 1 %1, i64 %2, i1 false)
  %30 = add i64 %.0.i, %2
  %31 = getelementptr inbounds i8, ptr %26, i64 -1
  %32 = load i8, ptr %31, align 1, !tbaa !20
  %33 = and i8 %32, 7
  switch i8 %33, label %_ZN10duckdb_hllL9sdssetlenEPcm.exit [
    i8 0, label %34
    i8 1, label %36
    i8 2, label %39
    i8 3, label %42
    i8 4, label %45
  ]

34:                                               ; preds = %28
  %.tr.i = trunc i64 %30 to i8
  %35 = shl i8 %.tr.i, 3
  store i8 %35, ptr %31, align 1, !tbaa !20
  br label %_ZN10duckdb_hllL9sdssetlenEPcm.exit

36:                                               ; preds = %28
  %37 = trunc i64 %30 to i8
  %38 = getelementptr inbounds i8, ptr %26, i64 -4
  store i8 %37, ptr %38, align 1, !tbaa !3
  br label %_ZN10duckdb_hllL9sdssetlenEPcm.exit

39:                                               ; preds = %28
  %40 = trunc i64 %30 to i16
  %41 = getelementptr inbounds i8, ptr %26, i64 -6
  store i16 %40, ptr %41, align 1, !tbaa !8
  br label %_ZN10duckdb_hllL9sdssetlenEPcm.exit

42:                                               ; preds = %28
  %43 = trunc i64 %30 to i32
  %44 = getelementptr inbounds i8, ptr %26, i64 -10
  store i32 %43, ptr %44, align 1, !tbaa !12
  br label %_ZN10duckdb_hllL9sdssetlenEPcm.exit

45:                                               ; preds = %28
  %46 = getelementptr inbounds i8, ptr %26, i64 -18
  store i64 %30, ptr %46, align 1, !tbaa !16
  br label %_ZN10duckdb_hllL9sdssetlenEPcm.exit

_ZN10duckdb_hllL9sdssetlenEPcm.exit:              ; preds = %28, %34, %36, %39, %42, %45
  %47 = getelementptr inbounds nuw i8, ptr %26, i64 %30
  store i8 0, ptr %47, align 1, !tbaa !20
  br label %48

48:                                               ; preds = %_ZN10duckdb_hllL6sdslenEPc.exit, %_ZN10duckdb_hllL9sdssetlenEPcm.exit
  ret ptr %26
}